target datalayout = "e-m:e-p270:32:32-p271:32:32-p272:64:64-i64:64-i128:128-f80:128-n8:16:32:64-S128"
target triple = "x86_64-pc-linux-gnu"

@.str.203 = private unnamed_addr constant [82 x i8] c"Default value of [%s] has changed. Modify the help text and default value check.\0A\00", align 1

; Function Attrs: nounwind uwtable
define dso_local void @verify_default(ptr noundef %0, i1 noundef zeroext %1) #0 {
  %3 = alloca ptr, align 8
  %4 = alloca i8, align 1
  store ptr %0, ptr %3, align 8, !tbaa !29
  %5 = zext i1 %1 to i8
  store i8 %5, ptr %4, align 1, !tbaa !57
  %6 = load i8, ptr %4, align 1, !tbaa !57, !range !59, !noundef !60
  %7 = trunc i8 %6 to i1
  br i1 %7, label %11, label %8

8:                                                ; preds = %2
  %9 = load ptr, ptr %3, align 8, !tbaa !29
  %10 = call i32 (ptr, ...) @printf(ptr noundef @.str.203, ptr noundef %9)
  call void @exit(i32 noundef 1) #19
  unreachable

11:                                               ; preds = %2
  ret void
}