; Function Attrs: nofree nounwind uwtable
define dso_local void @verify_default(ptr noundef %0, i1 noundef zeroext %1) local_unnamed_addr #9 {
  br i1 %1, label %5, label %3

3:                                                ; preds = %2
  %4 = tail call i32 (ptr, ...) @printf(ptr noundef nonnull dereferenceable(1) @.str.203, ptr noundef %0)
  tail call void @exit(i32 noundef 1) #43
  unreachable

5:                                                ; preds = %2
  ret void
}